target datalayout = "e-m:e-p270:32:32-p271:32:32-p272:64:64-i64:64-i128:128-f80:128-n8:16:32:64-S128"
target triple = "x86_64-pc-linux-gnu"

%struct.ILookInStream = type { ptr, ptr, ptr, ptr }
%struct.CLookToRead = type { %struct.ILookInStream, ptr, i64, i64, [16384 x i8] }
%struct.ISeekInStream = type { ptr, ptr, i64 }

; Function Attrs: nounwind uwtable
define internal i32 @LookToRead_Look_Exact(ptr noundef %0, ptr noundef %1, ptr noundef %2) #0 {
  %4 = alloca ptr, align 8
  %5 = alloca ptr, align 8
  %6 = alloca ptr, align 8
  %7 = alloca i32, align 4
  %8 = alloca ptr, align 8
  %9 = alloca i64, align 8
  store ptr %0, ptr %4, align 8, !tbaa !3
  store ptr %1, ptr %5, align 8, !tbaa !3
  store ptr %2, ptr %6, align 8, !tbaa !19
  call void @llvm.lifetime.start.p0(i64 4, ptr %7) #3
  store i32 0, ptr %7, align 4, !tbaa !9
  call void @llvm.lifetime.start.p0(i64 8, ptr %8) #3
  %10 = load ptr, ptr %4, align 8, !tbaa !3
  store ptr %10, ptr %8, align 8, !tbaa !3
  call void @llvm.lifetime.start.p0(i64 8, ptr %9) #3
  %11 = load ptr, ptr %8, align 8, !tbaa !3
  %12 = getelementptr inbounds nuw %struct.CLookToRead, ptr %11, i32 0, i32 3
  %13 = load i64, ptr %12, align 8, !tbaa !29
  %14 = load ptr, ptr %8, align 8, !tbaa !3
  %15 = getelementptr inbounds nuw %struct.CLookToRead, ptr %14, i32 0, i32 2
  %16 = load i64, ptr %15, align 8, !tbaa !30
  %17 = sub i64 %13, %16
  store i64 %17, ptr %9, align 8, !tbaa !7
  %18 = load i64, ptr %9, align 8, !tbaa !7
  %19 = icmp eq i64 %18, 0
  br i1 %19, label %20, label %50

20:                                               ; preds = %3
  %21 = load ptr, ptr %6, align 8, !tbaa !19
  %22 = load i64, ptr %21, align 8, !tbaa !7
  %23 = icmp ugt i64 %22, 0
  br i1 %23, label %24, label %50

24:                                               ; preds = %20
  %25 = load ptr, ptr %8, align 8, !tbaa !3
  %26 = getelementptr inbounds nuw %struct.CLookToRead, ptr %25, i32 0, i32 2
  store i64 0, ptr %26, align 8, !tbaa !30
  %27 = load ptr, ptr %6, align 8, !tbaa !19
  %28 = load i64, ptr %27, align 8, !tbaa !7
  %29 = icmp ugt i64 %28, 16384
  br i1 %29, label %30, label %32

30:                                               ; preds = %24
  %31 = load ptr, ptr %6, align 8, !tbaa !19
  store i64 16384, ptr %31, align 8, !tbaa !7
  br label %32

32:                                               ; preds = %30, %24
  %33 = load ptr, ptr %8, align 8, !tbaa !3
  %34 = getelementptr inbounds nuw %struct.CLookToRead, ptr %33, i32 0, i32 1
  %35 = load ptr, ptr %34, align 8, !tbaa !31
  %36 = getelementptr inbounds nuw %struct.ISeekInStream, ptr %35, i32 0, i32 0
  %37 = load ptr, ptr %36, align 8, !tbaa !32
  %38 = load ptr, ptr %8, align 8, !tbaa !3
  %39 = getelementptr inbounds nuw %struct.CLookToRead, ptr %38, i32 0, i32 1
  %40 = load ptr, ptr %39, align 8, !tbaa !31
  %41 = load ptr, ptr %8, align 8, !tbaa !3
  %42 = getelementptr inbounds nuw %struct.CLookToRead, ptr %41, i32 0, i32 4
  %43 = getelementptr inbounds [16384 x i8], ptr %42, i64 0, i64 0
  %44 = load ptr, ptr %6, align 8, !tbaa !19
  %45 = call i32 %37(ptr noundef %40, ptr noundef %43, ptr noundef %44)
  store i32 %45, ptr %7, align 4, !tbaa !9
  %46 = load ptr, ptr %6, align 8, !tbaa !19
  %47 = load i64, ptr %46, align 8, !tbaa !7
  %48 = load ptr, ptr %8, align 8, !tbaa !3
  %49 = getelementptr inbounds nuw %struct.CLookToRead, ptr %48, i32 0, i32 3
  store i64 %47, ptr %49, align 8, !tbaa !29
  store i64 %47, ptr %9, align 8, !tbaa !7
  br label %50

50:                                               ; preds = %32, %20, %3
  %51 = load i64, ptr %9, align 8, !tbaa !7
  %52 = load ptr, ptr %6, align 8, !tbaa !19
  %53 = load i64, ptr %52, align 8, !tbaa !7
  %54 = icmp ult i64 %51, %53
  br i1 %54, label %55, label %58

55:                                               ; preds = %50
  %56 = load i64, ptr %9, align 8, !tbaa !7
  %57 = load ptr, ptr %6, align 8, !tbaa !19
  store i64 %56, ptr %57, align 8, !tbaa !7
  br label %58

58:                                               ; preds = %55, %50
  %59 = load ptr, ptr %8, align 8, !tbaa !3
  %60 = getelementptr inbounds nuw %struct.CLookToRead, ptr %59, i32 0, i32 4
  %61 = getelementptr inbounds [16384 x i8], ptr %60, i64 0, i64 0
  %62 = load ptr, ptr %8, align 8, !tbaa !3
  %63 = getelementptr inbounds nuw %struct.CLookToRead, ptr %62, i32 0, i32 2
  %64 = load i64, ptr %63, align 8, !tbaa !30
  %65 = getelementptr inbounds nuw i8, ptr %61, i64 %64
  %66 = load ptr, ptr %5, align 8, !tbaa !3
  store ptr %65, ptr %66, align 8, !tbaa !3
  %67 = load i32, ptr %7, align 4, !tbaa !9
  call void @llvm.lifetime.end.p0(i64 8, ptr %9) #3
  call void @llvm.lifetime.end.p0(i64 8, ptr %8) #3
  call void @llvm.lifetime.end.p0(i64 4, ptr %7) #3
  ret i32 %67
}