; Function Attrs: nounwind uwtable
define internal i32 @LookToRead_Look_Exact(ptr noundef %0, ptr noundef writeonly captures(none) initializes((0, 8)) %1, ptr noundef %2) #0 {
  %4 = getelementptr inbounds nuw i8, ptr %0, i64 48
  %5 = load i64, ptr %4, align 8, !tbaa !23
  %6 = getelementptr inbounds nuw i8, ptr %0, i64 40
  %7 = load i64, ptr %6, align 8, !tbaa !24
  %8 = sub i64 %5, %7
  %9 = icmp eq i64 %5, %7
  %.pre = load i64, ptr %2, align 8, !tbaa !3
  br i1 %9, label %10, label %22

10:                                               ; preds = %3
  %.not = icmp eq i64 %.pre, 0
  br i1 %.not, label %.thread, label %11

11:                                               ; preds = %10
  store i64 0, ptr %6, align 8, !tbaa !24
  %12 = load i64, ptr %2, align 8, !tbaa !3
  %13 = icmp ugt i64 %12, 16384
  br i1 %13, label %14, label %15

14:                                               ; preds = %11
  store i64 16384, ptr %2, align 8, !tbaa !3
  br label %15

15:                                               ; preds = %14, %11
  %16 = getelementptr inbounds nuw i8, ptr %0, i64 32
  %17 = load ptr, ptr %16, align 8, !tbaa !25
  %18 = load ptr, ptr %17, align 8, !tbaa !26
  %19 = getelementptr inbounds nuw i8, ptr %0, i64 56
  %20 = tail call i32 %18(ptr noundef nonnull %17, ptr noundef nonnull %19, ptr noundef nonnull %2) #7
  %21 = load i64, ptr %2, align 8, !tbaa !3
  store i64 %21, ptr %4, align 8, !tbaa !23
  br label %.thread

22:                                               ; preds = %3
  %23 = icmp ult i64 %8, %.pre
  br i1 %23, label %24, label %.thread

24:                                               ; preds = %22
  store i64 %8, ptr %2, align 8, !tbaa !3
  br label %.thread

.thread:                                          ; preds = %10, %15, %24, %22
  %.02125 = phi i32 [ 0, %24 ], [ 0, %22 ], [ 0, %10 ], [ %20, %15 ]
  %25 = getelementptr inbounds nuw i8, ptr %0, i64 56
  %26 = load i64, ptr %6, align 8, !tbaa !24
  %27 = getelementptr inbounds nuw i8, ptr %25, i64 %26
  store ptr %27, ptr %1, align 8, !tbaa !15
  ret i32 %.02125
}